getc
 0x00000000:   93 08 20 00   addi  x17  x0  #0x00000002
 0x00000004:   13 05 00 00   addi  x10  x0  #0x00000000
 0x00000008:   97 05 00 00   auipc  x11  #0x00000000
 0x0000000c:   93 85 45 06   addi  x11  x11  #0x00000064
 0x00000010:   13 06 10 00   addi  x12  x0  #0x00000001
 0x00000014:   73 00 00 00   ecall

load byte
 0x00000018:   97 00 00 00   auipc  x1  #0x00000000
 0x0000001c:   83 c0 40 05   lbu  x1  x1  #0x00000054


compare delete
 0x00000024:   93 00 f0 07   addi  x1  x0  #0x0000007f
 0x00000028:   63 14 11 00   bne  x2  x1  #0x00000008 (@0x00000030)

goto loop
 0x0000002c:   6f f0 5f fd   jal  x0  #0xffffffd4 (@0x00000000)

compare q
 0x00000030:   93 00 10 07   addi  x1  x0  #0x00000071
 0x00000034:   63 14 11 00   bne  x2  x1  #0x00000008 (@0x0000003c)

 0x00000038:   6f 00 80 02   jal  x0  #0x00000028 (@0x00000060)

 0x0000003c:   93 80 00 00   addi  x1  x1  #0x00000000       <----------
 0x00000040:   93 08 30 00   addi  x17  x0  #0x00000003
 0x00000044:   13 05 10 00   addi  x10  x0  #0x00000001
 0x00000048:   97 05 00 00   auipc  x11  #0x00000000
 0x0000004c:   93 85 45 02   addi  x11  x11  #0x00000024
 0x00000050:   13 06 10 00   addi  x12  x0  #0x00000001
 0x00000054:   23 80 15 00   sb  x11  #0x00000000  x1     <---------------
 0x00000058:   73 00 00 00   ecall
 0x0000005c:   6f f0 5f fa   jal  x0  #0xffffffa4 (@0x00000000)


 0x00000060:   93 08 10 00   addi  x17  x0  #0x00000001
 0x00000064:   13 05 00 00   addi  x10  x0  #0x00000000
 0x00000068:   73 00 00 00   ecall




C    A    D     B
a0   i   a1   copy_of[pc * var_count + i]




set destination(A) source(B)      (copy starts)

set source(C) destination(D)     (copy continues)

































 0x00000000:   93 08 20 00   addi  x17  x0  #0x00000002
 0x00000004:   13 05 00 00   addi  x10  x0  #0x00000000
 0x00000008:   97 05 00 00   auipc  x11  #0x00000000
 0x0000000c:   93 85 05 06   addi  x11  x11  #0x00000060
 0x00000010:   13 06 10 00   addi  x12  x0  #0x00000001
 0x00000014:   73 00 00 00   ecall


 0x00000018:   97 01 00 00   auipc  x3  #0x00000000
 0x0000001c:   83 c1 01 05   lbu  x3  x3  #0x00000050

 0x00000024:   93 00 f0 07   addi  x1  x0  #0x0000007f
 0x00000028:   63 14 11 00   bne  x2  x1  #0x00000008 (@0x00000030)

 0x0000002c:   6f f0 5f fd   jal  x0  #0xffffffd4 (@0x00000000)


 0x00000030:   93 00 10 07   addi  x1  x0  #0x00000071
 0x00000034:   63 14 11 00   bne  x2  x1  #0x00000008 (@0x0000003c)

 0x00000038:   6f 00 40 02   jal  x0  #0x00000024 (@0x0000005c)


 0x0000003c:   93 08 30 00   addi  x17  x0  #0x00000003
 0x00000040:   13 05 10 00   addi  x10  x0  #0x00000001
 0x00000044:   97 05 00 00   auipc  x11  #0x00000000
 0x00000048:   93 85 45 02   addi  x11  x11  #0x00000024
 0x0000004c:   13 06 10 00   addi  x12  x0  #0x00000001
 0x00000050:   23 80 15 00   sb  x11  #0x00000000  x1


 0x00000054:   73 00 00 00   ecall
 0x00000058:   6f f0 9f fa   jal  x0  #0xffffffa8 (@0x00000000)
 0x0000005c:   93 08 10 00   addi  x17  x0  #0x00000001
 0x00000060:   13 05 00 00   addi  x10  x0  #0x00000000
 0x00000064:   73 00 00 00   ecall
 0x00000068:   00 00 00 00   [illegal instruction opcode: 0x0]


























 0x00000000:   93 08 20 00   addi  x17  x0  #0x00000002
 0x00000004:   13 05 00 00   addi  x10  x0  #0x00000000
 0x00000008:   97 05 00 00   auipc  x11  #0x00000000
 0x0000000c:   93 85 c5 05   addi  x11  x11  #0x0000005c
 0x00000010:   13 06 10 00   addi  x12  x0  #0x00000001
 0x00000014:   73 00 00 00   ecall

 0x00000018:   17 01 00 00   auipc  x2  #0x00000000
 0x0000001c:   03 41 c1 04   lbu  x2  x2  #0x0000004c

 0x00000024:   63 14 11 00   bne  x2  x1  #0x00000008 (@0x0000002c)

 0x00000028:   6f f0 9f fd   jal  x0  #0xffffffd8 (@0x00000000)
 0x0000002c:   93 00 10 07   addi  x1  x0  #0x00000071
 0x00000030:   63 14 11 00   bne  x2  x1  #0x00000008 (@0x00000038)
 0x00000034:   6f 00 40 02   jal  x0  #0x00000024 (@0x00000058)
 0x00000038:   93 08 30 00   addi  x17  x0  #0x00000003
 0x0000003c:   13 05 10 00   addi  x10  x0  #0x00000001
 0x00000040:   97 05 00 00   auipc  x11  #0x00000000
 0x00000044:   93 85 45 02   addi  x11  x11  #0x00000024
 0x00000048:   13 06 10 00   addi  x12  x0  #0x00000001
 0x0000004c:   23 80 15 00   sb  x11  #0x00000000  x1
 0x00000050:   73 00 00 00   ecall
 0x00000054:   6f f0 df fa   jal  x0  #0xffffffac (@0x00000000)
 0x00000058:   93 08 10 00   addi  x17  x0  #0x00000001
 0x0000005c:   13 05 00 00   addi  x10  x0  #0x00000000
 0x00000060:   73 00 00 00   ecall
 0x00000064:   00 00 00 00   [illegal instruction opcode: 0x0]


